   1               		.file	"Caterina.c"
   2               	__SREG__ = 0x3f
   3               	__SP_H__ = 0x3e
   4               	__SP_L__ = 0x3d
   5               	__CCP__  = 0x34
   6               	__tmp_reg__ = 0
   7               	__zero_reg__ = 1
  15               	.Ltext0:
  16               		.section	.text.StartSketch,"ax",@progbits
  17               	.global	StartSketch
  19               	StartSketch:
  20               	.LFB93:
  21               	.LSM0:
  22               	/* prologue: function */
  23               	/* frame size = 0 */
  24               	.LSM1:
  25               	/* #APP */
  26               	 ;  73 "Caterina.c" 1
  27 0000 F894      		cli
  28               	 ;  0 "" 2
  29               	.LSM2:
  30               	/* #NOAPP */
  31 0002 1092 6F00 		sts 111,__zero_reg__
  32               	.LSM3:
  33 0006 1092 8100 		sts 129,__zero_reg__
  34               	.LSM4:
  35 000a 1092 8500 		sts 133,__zero_reg__
  36               	.LSM5:
  37 000e 1092 8400 		sts 132,__zero_reg__
  38               	.LSM6:
  39 0012 81E0      		ldi r24,lo8(1)
  40 0014 85BF      		out 85-32,r24
  41               	.LSM7:
  42 0016 15BE      		out 85-32,__zero_reg__
  43               	.LSM8:
  44 0018 4798      		cbi 40-32,7
  45               	.LSM9:
  46 001a 5D98      		cbi 43-32,5
  47               	.LSM10:
  48 001c 2898      		cbi 37-32,0
  49               	.LSM11:
  50               	/* #APP */
  51               	 ;  90 "Caterina.c" 1
  52 001e 0C94 0000 		jmp 0x0000
  53               	 ;  0 "" 2
  54               	/* epilogue start */
  55               	.LSM12:
  56               	/* #NOAPP */
  57 0022 0895      		ret
  58               	.LFE93:
  60               		.section	.text.LEDPulse,"ax",@progbits
  61               	.global	LEDPulse
  63               	LEDPulse:
  64               	.LFB94:
  65               	.LSM13:
  66               	/* prologue: function */
  67               	/* frame size = 0 */
  68               	.LSM14:
  69 0000 2091 0000 		lds r18,LLEDPulse
  70 0004 3091 0000 		lds r19,(LLEDPulse)+1
  71 0008 2F5F      		subi r18,lo8(-(1))
  72 000a 3F4F      		sbci r19,hi8(-(1))
  73 000c 3093 0000 		sts (LLEDPulse)+1,r19
  74 0010 2093 0000 		sts LLEDPulse,r18
  75               	.LSM15:
  76 0014 932F      		mov r25,r19
  77               	.LVL0:
  78               	.LSM16:
  79 0016 37FF      		sbrs r19,7
  80 0018 00C0      		rjmp .L4
  81               	.LSM17:
  82 001a 8EEF      		ldi r24,lo8(-2)
  83 001c 831B      		sub r24,r19
  84 001e 982F      		mov r25,r24
  85               	.L4:
  86               	.LSM18:
  87 0020 990F      		lsl r25
  88 0022 9217      		cp r25,r18
  89 0024 00F4      		brsh .L5
  90               	.LSM19:
  91 0026 4798      		cbi 40-32,7
  92 0028 0895      		ret
  93               	.L5:
  94               	.LSM20:
  95 002a 479A      		sbi 40-32,7
  96 002c 0895      		ret
  97               	.LFE94:
  99               		.section	.text.__vector_17,"ax",@progbits
 100               	.global	__vector_17
 102               	__vector_17:
 103               	.LFB97:
 104               	.LSM21:
 105 0000 1F92      		push __zero_reg__
 106 0002 0F92      		push r0
 107 0004 0FB6      		in r0,__SREG__
 108 0006 0F92      		push r0
 109 0008 1124      		clr __zero_reg__
 110 000a 2F93      		push r18
 111 000c 8F93      		push r24
 112 000e 9F93      		push r25
 113 0010 EF93      		push r30
 114 0012 FF93      		push r31
 115               	/* prologue: Signal */
 116               	/* frame size = 0 */
 117               	.LSM22:
 118 0014 1092 8500 		sts 133,__zero_reg__
 119               	.LSM23:
 120 0018 1092 8400 		sts 132,__zero_reg__
 121               	.LSM24:
 122 001c 8091 0000 		lds r24,TxLEDPulse
 123 0020 9091 0000 		lds r25,(TxLEDPulse)+1
 124 0024 0097      		sbiw r24,0
 125 0026 01F0      		breq .L9
 126 0028 0197      		sbiw r24,1
 127 002a 9093 0000 		sts (TxLEDPulse)+1,r25
 128 002e 8093 0000 		sts TxLEDPulse,r24
 129 0032 892B      		or r24,r25
 130 0034 01F4      		brne .L9
 131               	.LSM25:
 132 0036 5D98      		cbi 43-32,5
 133               	.L9:
 134               	.LSM26:
 135 0038 8091 0000 		lds r24,RxLEDPulse
 136 003c 9091 0000 		lds r25,(RxLEDPulse)+1
 137 0040 0097      		sbiw r24,0
 138 0042 01F0      		breq .L10
 139 0044 0197      		sbiw r24,1
 140 0046 9093 0000 		sts (RxLEDPulse)+1,r25
 141 004a 8093 0000 		sts RxLEDPulse,r24
 142 004e 892B      		or r24,r25
 143 0050 01F4      		brne .L10
 144               	.LSM27:
 145 0052 2898      		cbi 37-32,0
 146               	.L10:
 147               	.LBB76:
 148               	.LSM28:
 149 0054 E0E0      		ldi r30,lo8(0)
 150 0056 F0E0      		ldi r31,hi8(0)
 151               	.LVL1:
 152               	/* #APP */
 153               	 ;  209 "Caterina.c" 1
 154 0058 8591      		lpm r24, Z+
 155 005a 9491      		lpm r25, Z
 156               		
 157               	 ;  0 "" 2
 158               	.LVL2:
 159               	/* #NOAPP */
 160               	.LBE76:
 161 005c 8F5F      		subi r24,lo8(-1)
 162 005e 9F4F      		sbci r25,hi8(-1)
 163 0060 01F0      		breq .L12
 164               	.LSM29:
 165 0062 8091 0000 		lds r24,Timeout
 166 0066 9091 0000 		lds r25,(Timeout)+1
 167               	.LVL3:
 168 006a 0196      		adiw r24,1
 169 006c 9093 0000 		sts (Timeout)+1,r25
 170 0070 8093 0000 		sts Timeout,r24
 171               	.LVL4:
 172               	.L12:
 173               	/* epilogue start */
 174               	.LSM30:
 175 0074 FF91      		pop r31
 176 0076 EF91      		pop r30
 177               	.LVL5:
 178 0078 9F91      		pop r25
 179 007a 8F91      		pop r24
 180               	.LVL6:
 181 007c 2F91      		pop r18
 182 007e 0F90      		pop r0
 183 0080 0FBE      		out __SREG__,r0
 184 0082 0F90      		pop r0
 185 0084 1F90      		pop __zero_reg__
 186 0086 1895      		reti
 187               	.LFE97:
 189               		.section	.text.FetchNextCommandByte,"ax",@progbits
 191               	FetchNextCommandByte:
 192               	.LFB101:
 193               	.LSM31:
 194               	/* prologue: function */
 195               	/* frame size = 0 */
 196               	.LBB77:
 197               	.LBB78:
 198               	.LSM32:
 199 0000 84E0      		ldi r24,lo8(4)
 200 0002 8093 E900 		sts 233,r24
 201 0006 00C0      		rjmp .L14
 202               	.L18:
 203               	.LBE78:
 204               	.LBE77:
 205               	.LBB79:
 206               	.LBB80:
 207               	.LSM33:
 208 0008 8091 E800 		lds r24,232
 209 000c 8B77      		andi r24,lo8(123)
 210 000e 8093 E800 		sts 232,r24
 211 0012 00C0      		rjmp .L15
 212               	.L17:
 213               	.LBE80:
 214               	.LBE79:
 215               	.LSM34:
 216 0014 8EB3      		in r24,62-32
 217 0016 8823      		tst r24
 218 0018 01F0      		breq .L16
 219               	.L15:
 220               	.LBB81:
 221               	.LBB82:
 222               	.LSM35:
 223 001a 8091 E800 		lds r24,232
 224               	.LBE82:
 225               	.LBE81:
 226               	.LSM36:
 227 001e 82FF      		sbrs r24,2
 228 0020 00C0      		rjmp .L17
 229               	.L14:
 230               	.LBB83:
 231               	.LBB84:
 232               	.LSM37:
 233 0022 8091 E800 		lds r24,232
 234               	.LBE84:
 235               	.LBE83:
 236               	.LSM38:
 237 0026 85FF      		sbrs r24,5
 238 0028 00C0      		rjmp .L18
 239               	.LBB85:
 240               	.LBB86:
 241               	.LSM39:
 242 002a 8091 F100 		lds r24,241
 243               	.L16:
 244               	.LBE86:
 245               	.LBE85:
 246               	.LSM40:
 247 002e 0895      		ret
 248               	.LFE101:
 250               		.section	.text.WriteNextResponseByte,"ax",@progbits
 252               	WriteNextResponseByte:
 253               	.LFB102:
 254               	.LSM41:
 255               	.LVL7:
 256               	/* prologue: function */
 257               	/* frame size = 0 */
 258 0000 982F      		mov r25,r24
 259               	.LBB87:
 260               	.LBB88:
 261               	.LSM42:
 262 0002 83E0      		ldi r24,lo8(3)
 263               	.LVL8:
 264 0004 8093 E900 		sts 233,r24
 265               	.LBE88:
 266               	.LBE87:
 267               	.LBB89:
 268               	.LBB90:
 269               	.LSM43:
 270 0008 8091 E800 		lds r24,232
 271               	.LBE90:
 272               	.LBE89:
 273               	.LSM44:
 274 000c 85FD      		sbrc r24,5
 275 000e 00C0      		rjmp .L22
 276               	.LBB91:
 277               	.LBB92:
 278               	.LSM45:
 279 0010 8091 E800 		lds r24,232
 280 0014 8E77      		andi r24,lo8(126)
 281 0016 8093 E800 		sts 232,r24
 282 001a 00C0      		rjmp .L23
 283               	.L25:
 284               	.LBE92:
 285               	.LBE91:
 286               	.LSM46:
 287 001c 8EB3      		in r24,62-32
 288 001e 8823      		tst r24
 289 0020 01F0      		breq .L26
 290               	.L23:
 291               	.LBB93:
 292               	.LBB94:
 293               	.LSM47:
 294 0022 8091 E800 		lds r24,232
 295               	.LBE94:
 296               	.LBE93:
 297               	.LSM48:
 298 0026 80FF      		sbrs r24,0
 299 0028 00C0      		rjmp .L25
 300               	.L22:
 301               	.LBB95:
 302               	.LBB96:
 303               	.LSM49:
 304 002a 9093 F100 		sts 241,r25
 305               	.LBE96:
 306               	.LBE95:
 307               	.LSM50:
 308 002e 5D9A      		sbi 43-32,5
 309               	.LSM51:
 310 0030 84E6      		ldi r24,lo8(100)
 311 0032 90E0      		ldi r25,hi8(100)
 312 0034 9093 0000 		sts (TxLEDPulse)+1,r25
 313 0038 8093 0000 		sts TxLEDPulse,r24
 314               	.L26:
 315 003c 0895      		ret
 316               	.LFE102:
 318               		.data
 319               	.LC0:
 320 0000 4341 5445 		.string	"CATERINA"
 320      5249 4E41 
 320      00
 321               		.section	.text.CDC_Task,"ax",@progbits
 322               	.global	CDC_Task
 324               	CDC_Task:
 325               	.LFB103:
 326               	.LSM52:
 327 0000 4F92      		push r4
 328 0002 5F92      		push r5
 329 0004 6F92      		push r6
 330 0006 7F92      		push r7
 331 0008 8F92      		push r8
 332 000a 9F92      		push r9
 333 000c AF92      		push r10
 334 000e BF92      		push r11
 335 0010 CF92      		push r12
 336 0012 DF92      		push r13
 337 0014 EF92      		push r14
 338 0016 FF92      		push r15
 339 0018 0F93      		push r16
 340 001a 1F93      		push r17
 341 001c CF93      		push r28
 342 001e DF93      		push r29
 343               	/* prologue: function */
 344               	/* frame size = 0 */
 345               	.LBB129:
 346               	.LBB130:
 347               	.LSM53:
 348 0020 84E0      		ldi r24,lo8(4)
 349 0022 8093 E900 		sts 233,r24
 350               	.LBE130:
 351               	.LBE129:
 352               	.LBB131:
 353               	.LBB132:
 354               	.LSM54:
 355 0026 8091 E800 		lds r24,232
 356               	.LBE132:
 357               	.LBE131:
 358               	.LSM55:
 359 002a 82FF      		sbrs r24,2
 360 002c 00C0      		rjmp .L84
 361               	.LSM56:
 362 002e 289A      		sbi 37-32,0
 363               	.LSM57:
 364 0030 84E6      		ldi r24,lo8(100)
 365 0032 90E0      		ldi r25,hi8(100)
 366 0034 9093 0000 		sts (RxLEDPulse)+1,r25
 367 0038 8093 0000 		sts RxLEDPulse,r24
 368               	.LSM58:
 369 003c 0E94 0000 		call FetchNextCommandByte
 370 0040 182F      		mov r17,r24
 371               	.LVL9:
 372               	.LSM59:
 373 0042 8534      		cpi r24,lo8(69)
 374 0044 01F4      		brne .L29
 375               	.LVL10:
 376               	.LSM60:
 377 0046 8CEA      		ldi r24,lo8(3500)
 378 0048 9DE0      		ldi r25,hi8(3500)
 379               	.LVL11:
 380 004a 9093 0000 		sts (Timeout)+1,r25
 381 004e 8093 0000 		sts Timeout,r24
 382               	.L30:
 383               	.LSM61:
 384 0052 07B6      		in __tmp_reg__,87-32
 385 0054 00FC      		sbrc __tmp_reg__,0
 386 0056 00C0      		rjmp .L30
 387               	.L85:
 388 0058 F999      		sbic 63-32,1
 389 005a 00C0      		rjmp .L85
 390 005c 81E1      		ldi r24,lo8(17)
 391               	/* #APP */
 392               	 ;  493 "Caterina.c" 1
 393 005e 8093 5700 		sts 87, r24
 394 0062 E895      		spm
 395               		
 396               	 ;  0 "" 2
 397               	/* #NOAPP */
 398 0064 00C0      		rjmp .L98
 399               	.LVL12:
 400               	.L29:
 401               	.LSM62:
 402 0066 8435      		cpi r24,lo8(84)
 403 0068 01F4      		brne .L33
 404               	.LSM63:
 405 006a 0E94 0000 		call FetchNextCommandByte
 406               	.LVL13:
 407               	.L98:
 408               	.LSM64:
 409 006e 8DE0      		ldi r24,lo8(13)
 410 0070 00C0      		rjmp .L97
 411               	.LVL14:
 412               	.L33:
 413               	.LSM65:
 414 0072 8C34      		cpi r24,lo8(76)
 415 0074 01F0      		breq .L98
 416 0076 8035      		cpi r24,lo8(80)
 417 0078 01F0      		breq .L98
 418               	.L35:
 419               	.LSM66:
 420 007a 8437      		cpi r24,lo8(116)
 421 007c 01F4      		brne .L36
 422               	.LSM67:
 423 007e 84E4      		ldi r24,lo8(68)
 424               	.LVL15:
 425 0080 0E94 0000 		call WriteNextResponseByte
 426               	.LSM68:
 427 0084 80E0      		ldi r24,lo8(0)
 428 0086 00C0      		rjmp .L97
 429               	.LVL16:
 430               	.L36:
 431               	.LSM69:
 432 0088 8136      		cpi r24,lo8(97)
 433 008a 01F4      		brne .L37
 434               	.LSM70:
 435 008c 89E5      		ldi r24,lo8(89)
 436               	.LVL17:
 437 008e 00C0      		rjmp .L97
 438               	.LVL18:
 439               	.L37:
 440               	.LSM71:
 441 0090 8134      		cpi r24,lo8(65)
 442 0092 01F4      		brne .L38
 443               	.LSM72:
 444 0094 0E94 0000 		call FetchNextCommandByte
 445               	.LVL19:
 446 0098 182F      		mov r17,r24
 447               	.LVL20:
 448               	.LSM73:
 449 009a 0E94 0000 		call FetchNextCommandByte
 450 009e 90E0      		ldi r25,lo8(0)
 451 00a0 880F      		lsl r24
 452 00a2 991F      		rol r25
 453 00a4 AA27      		clr r26
 454 00a6 97FD      		sbrc r25,7
 455 00a8 A095      		com r26
 456 00aa BA2F      		mov r27,r26
 457 00ac 312F      		mov r19,r17
 458 00ae 330F      		lsl r19
 459 00b0 20E0      		ldi r18,lo8(0)
 460 00b2 4427      		clr r20
 461 00b4 37FD      		sbrc r19,7
 462 00b6 4095      		com r20
 463 00b8 542F      		mov r21,r20
 464 00ba 822B      		or r24,r18
 465 00bc 932B      		or r25,r19
 466 00be A42B      		or r26,r20
 467 00c0 B52B      		or r27,r21
 468 00c2 00C0      		rjmp .L100
 469               	.LVL21:
 470               	.L38:
 471               	.LSM74:
 472 00c4 8037      		cpi r24,lo8(112)
 473 00c6 01F4      		brne .L39
 474               	.LSM75:
 475 00c8 83E5      		ldi r24,lo8(83)
 476               	.LVL22:
 477 00ca 00C0      		rjmp .L97
 478               	.LVL23:
 479               	.L39:
 480               	.LSM76:
 481 00cc 8335      		cpi r24,lo8(83)
 482 00ce 01F4      		brne .L40
 483 00d0 C0E0      		ldi r28,lo8(.LC0)
 484 00d2 D0E0      		ldi r29,hi8(.LC0)
 485               	.L41:
 486               	.LBB133:
 487               	.LSM77:
 488 00d4 8991      		ld r24,Y+
 489               	.LVL24:
 490 00d6 0E94 0000 		call WriteNextResponseByte
 491               	.LSM78:
 492 00da 20E0      		ldi r18,hi8(.LC0+7)
 493 00dc C030      		cpi r28,lo8(.LC0+7)
 494 00de D207      		cpc r29,r18
 495 00e0 01F4      		brne .L41
 496 00e2 00C0      		rjmp .L32
 497               	.LVL25:
 498               	.L40:
 499               	.LBE133:
 500               	.LSM79:
 501 00e4 8635      		cpi r24,lo8(86)
 502 00e6 01F4      		brne .L42
 503               	.LSM80:
 504 00e8 81E3      		ldi r24,lo8(49)
 505               	.LVL26:
 506 00ea 0E94 0000 		call WriteNextResponseByte
 507               	.LSM81:
 508 00ee 80E3      		ldi r24,lo8(48)
 509 00f0 00C0      		rjmp .L97
 510               	.LVL27:
 511               	.L42:
 512               	.LSM82:
 513 00f2 8337      		cpi r24,lo8(115)
 514 00f4 01F4      		brne .L43
 515               	.LSM83:
 516 00f6 87E8      		ldi r24,lo8(-121)
 517               	.LVL28:
 518 00f8 0E94 0000 		call WriteNextResponseByte
 519               	.LSM84:
 520 00fc 85E9      		ldi r24,lo8(-107)
 521 00fe 0E94 0000 		call WriteNextResponseByte
 522               	.LSM85:
 523 0102 8EE1      		ldi r24,lo8(30)
 524 0104 00C0      		rjmp .L97
 525               	.LVL29:
 526               	.L43:
 527               	.LSM86:
 528 0106 8536      		cpi r24,lo8(101)
 529 0108 01F4      		brne .L44
 530 010a E0E0      		ldi r30,lo8(0)
 531 010c F0E0      		ldi r31,hi8(0)
 532               	.LBB134:
 533               	.LSM87:
 534 010e 93E0      		ldi r25,lo8(3)
 535               	.LSM88:
 536 0110 85E0      		ldi r24,lo8(5)
 537               	.LVL30:
 538               	.L47:
 539               	.LSM89:
 540               	/* #APP */
 541               	 ;  557 "Caterina.c" 1
 542 0112 9093 5700 		sts 87, r25
 543 0116 E895      		spm
 544               		
 545               	 ;  0 "" 2
 546               	/* #NOAPP */
 547               	.L45:
 548               	.LSM90:
 549 0118 07B6      		in __tmp_reg__,87-32
 550 011a 00FC      		sbrc __tmp_reg__,0
 551 011c 00C0      		rjmp .L45
 552               	.LSM91:
 553               	/* #APP */
 554               	 ;  559 "Caterina.c" 1
 555 011e 8093 5700 		sts 87, r24
 556 0122 E895      		spm
 557               		
 558               	 ;  0 "" 2
 559               	/* #NOAPP */
 560               	.L46:
 561               	.LSM92:
 562 0124 07B6      		in __tmp_reg__,87-32
 563 0126 00FC      		sbrc __tmp_reg__,0
 564 0128 00C0      		rjmp .L46
 565 012a E058      		subi r30,lo8(-(128))
 566 012c FF4F      		sbci r31,hi8(-(128))
 567               	.LSM93:
 568 012e A0E7      		ldi r26,hi8(28672)
 569 0130 E030      		cpi r30,lo8(28672)
 570 0132 FA07      		cpc r31,r26
 571 0134 01F4      		brne .L47
 572 0136 00C0      		rjmp .L98
 573               	.LVL31:
 574               	.L44:
 575               	.LBE134:
 576               	.LSM94:
 577 0138 8237      		cpi r24,lo8(114)
 578 013a 01F4      		brne .L48
 579               	.LBB135:
 580               	.LSM95:
 581 013c E1E0      		ldi r30,lo8(1)
 582 013e F0E0      		ldi r31,hi8(1)
 583 0140 89E0      		ldi r24,lo8(9)
 584               	.LVL32:
 585               	/* #APP */
 586               	 ;  578 "Caterina.c" 1
 587 0142 8093 5700 		sts 87, r24
 588 0146 8491      		lpm r24, Z
 589               		
 590               	 ;  0 "" 2
 591               	.LVL33:
 592               	/* #NOAPP */
 593 0148 00C0      		rjmp .L97
 594               	.LVL34:
 595               	.L48:
 596               	.LBE135:
 597               	.LSM96:
 598 014a 8634      		cpi r24,lo8(70)
 599 014c 01F4      		brne .L49
 600               	.LBB136:
 601               	.LSM97:
 602 014e E0E0      		ldi r30,lo8(0)
 603 0150 F0E0      		ldi r31,hi8(0)
 604 0152 89E0      		ldi r24,lo8(9)
 605               	.LVL35:
 606               	/* #APP */
 607               	 ;  582 "Caterina.c" 1
 608 0154 8093 5700 		sts 87, r24
 609 0158 8491      		lpm r24, Z
 610               		
 611               	 ;  0 "" 2
 612               	.LVL36:
 613               	/* #NOAPP */
 614 015a 00C0      		rjmp .L97
 615               	.LVL37:
 616               	.L49:
 617               	.LBE136:
 618               	.LSM98:
 619 015c 8E34      		cpi r24,lo8(78)
 620 015e 01F4      		brne .L50
 621               	.LBB137:
 622               	.LSM99:
 623 0160 E3E0      		ldi r30,lo8(3)
 624 0162 F0E0      		ldi r31,hi8(3)
 625 0164 89E0      		ldi r24,lo8(9)
 626               	.LVL38:
 627               	/* #APP */
 628               	 ;  586 "Caterina.c" 1
 629 0166 8093 5700 		sts 87, r24
 630 016a 8491      		lpm r24, Z
 631               		
 632               	 ;  0 "" 2
 633               	.LVL39:
 634               	/* #NOAPP */
 635 016c 00C0      		rjmp .L97
 636               	.LVL40:
 637               	.L50:
 638               	.LBE137:
 639               	.LSM100:
 640 016e 8135      		cpi r24,lo8(81)
 641 0170 01F4      		brne .L51
 642               	.LBB138:
 643               	.LSM101:
 644 0172 E2E0      		ldi r30,lo8(2)
 645 0174 F0E0      		ldi r31,hi8(2)
 646 0176 89E0      		ldi r24,lo8(9)
 647               	.LVL41:
 648               	/* #APP */
 649               	 ;  590 "Caterina.c" 1
 650 0178 8093 5700 		sts 87, r24
 651 017c 8491      		lpm r24, Z
 652               		
 653               	 ;  0 "" 2
 654               	.LVL42:
 655               	/* #NOAPP */
 656 017e 00C0      		rjmp .L97
 657               	.LVL43:
 658               	.L51:
 659               	.LBE138:
 660               	.LSM102:
 661 0180 8236      		cpi r24,lo8(98)
 662 0182 01F4      		brne .L52
 663               	.LSM103:
 664 0184 89E5      		ldi r24,lo8(89)
 665               	.LVL44:
 666 0186 0E94 0000 		call WriteNextResponseByte
 667               	.LSM104:
 668 018a 80E0      		ldi r24,lo8(0)
 669 018c 0E94 0000 		call WriteNextResponseByte
 670               	.LSM105:
 671 0190 80E8      		ldi r24,lo8(-128)
 672 0192 00C0      		rjmp .L97
 673               	.LVL45:
 674               	.L52:
 675               	.LSM106:
 676 0194 8234      		cpi r24,lo8(66)
 677 0196 01F0      		breq .L53
 678 0198 8736      		cpi r24,lo8(103)
 679 019a 01F0      		breq .+2
 680 019c 00C0      		rjmp .L54
 681               	.L53:
 682               	.LSM107:
 683 019e 1092 0000 		sts (Timeout)+1,__zero_reg__
 684 01a2 1092 0000 		sts Timeout,__zero_reg__
 685               	.LBB139:
 686               	.LSM108:
 687 01a6 0E94 0000 		call FetchNextCommandByte
 688               	.LVL46:
 689 01aa 082F      		mov r16,r24
 690               	.LSM109:
 691 01ac 0E94 0000 		call FetchNextCommandByte
 692 01b0 F82E      		mov r15,r24
 693               	.LSM110:
 694 01b2 0E94 0000 		call FetchNextCommandByte
 695 01b6 682E      		mov r6,r24
 696               	.LVL47:
 697               	.LBB140:
 698               	.LSM111:
 699 01b8 8554      		subi r24,lo8(-(-69))
 700 01ba 8230      		cpi r24,lo8(2)
 701 01bc 00F0      		brlo .+2
 702 01be 00C0      		rjmp .L99
 703               	.L55:
 704               	.LSM112:
 705 01c0 902F      		mov r25,r16
 706               	.LVL48:
 707 01c2 80E0      		ldi r24,lo8(0)
 708               	.LVL49:
 709               	.LSM113:
 710 01c4 CF2D      		mov r28,r15
 711               	.LVL50:
 712 01c6 D0E0      		ldi r29,lo8(0)
 713               	.LVL51:
 714 01c8 C82B      		or r28,r24
 715 01ca D92B      		or r29,r25
 716               	.LVL52:
 717               	.LSM114:
 718 01cc 1092 6F00 		sts 111,__zero_reg__
 719               	.LSM115:
 720 01d0 1736      		cpi r17,lo8(103)
 721 01d2 01F0      		breq .+2
 722 01d4 00C0      		rjmp .L56
 723               	.LSM116:
 724 01d6 81E1      		ldi r24,lo8(17)
 725               	/* #APP */
 726               	 ;  308 "Caterina.c" 1
 727 01d8 8093 5700 		sts 87, r24
 728 01dc E895      		spm
 729               		
 730               	 ;  0 "" 2
 731               	/* #NOAPP */
 732 01de DD24      		clr r13
 733               	.LVL53:
 734               	.LSM117:
 735 01e0 CC24      		clr r12
 736 01e2 C394      		inc r12
 737 01e4 00C0      		rjmp .L57
 738               	.L61:
 739 01e6 E090 0000 		lds r14,CurrAddress
 740 01ea F090 0000 		lds r15,(CurrAddress)+1
 741 01ee 0091 0000 		lds r16,(CurrAddress)+2
 742 01f2 1091 0000 		lds r17,(CurrAddress)+3
 743               	.LSM118:
 744 01f6 B6E4      		ldi r27,lo8(70)
 745 01f8 6B16      		cp r6,r27
 746 01fa 01F4      		brne .L58
 747               	.LBB144:
 748               	.LSM119:
 749 01fc ED2D      		mov r30,r13
 750 01fe F0E0      		ldi r31,lo8(0)
 751               	.LVL54:
 752 0200 EE29      		or r30,r14
 753 0202 FF29      		or r31,r15
 754               	.LVL55:
 755               	/* #APP */
 756               	 ;  318 "Caterina.c" 1
 757 0204 E491      		lpm r30, Z
 758               		
 759               	 ;  0 "" 2
 760               	.LVL56:
 761               	/* #NOAPP */
 762               	.LBE144:
 763 0206 8E2F      		mov r24,r30
 764 0208 0E94 0000 		call WriteNextResponseByte
 765               	.LVL57:
 766               	.LSM120:
 767 020c DD20      		tst r13
 768               	.LVL58:
 769 020e 01F0      		breq .L59
 770               	.LSM121:
 771 0210 82E0      		ldi r24,lo8(2)
 772 0212 90E0      		ldi r25,hi8(2)
 773 0214 A0E0      		ldi r26,hlo8(2)
 774 0216 B0E0      		ldi r27,hhi8(2)
 775 0218 E80E      		add r14,r24
 776 021a F91E      		adc r15,r25
 777 021c 0A1F      		adc r16,r26
 778 021e 1B1F      		adc r17,r27
 779 0220 E092 0000 		sts CurrAddress,r14
 780 0224 F092 0000 		sts (CurrAddress)+1,r15
 781 0228 0093 0000 		sts (CurrAddress)+2,r16
 782 022c 1093 0000 		sts (CurrAddress)+3,r17
 783               	.L59:
 784               	.LSM122:
 785 0230 DC24      		eor r13,r12
 786 0232 00C0      		rjmp .L60
 787               	.L58:
 788               	.LBE140:
 789               	.LSM123:
 790 0234 D801      		movw r26,r16
 791 0236 C701      		movw r24,r14
 792 0238 B695      		lsr r27
 793 023a A795      		ror r26
 794 023c 9795      		ror r25
 795 023e 8795      		ror r24
 796 0240 0E94 0000 		call __eerd_byte_m32u4
 797               	.LBB148:
 798 0244 0E94 0000 		call WriteNextResponseByte
 799               	.LSM124:
 800 0248 82E0      		ldi r24,lo8(2)
 801 024a 90E0      		ldi r25,hi8(2)
 802 024c A0E0      		ldi r26,hlo8(2)
 803 024e B0E0      		ldi r27,hhi8(2)
 804 0250 E80E      		add r14,r24
 805 0252 F91E      		adc r15,r25
 806 0254 0A1F      		adc r16,r26
 807 0256 1B1F      		adc r17,r27
 808 0258 E092 0000 		sts CurrAddress,r14
 809 025c F092 0000 		sts (CurrAddress)+1,r15
 810 0260 0093 0000 		sts (CurrAddress)+2,r16
 811 0264 1093 0000 		sts (CurrAddress)+3,r17
 812               	.L60:
 813 0268 2197      		sbiw r28,1
 814               	.L57:
 815               	.LSM125:
 816 026a 2097      		sbiw r28,0
 817 026c 01F0      		breq .+2
 818 026e 00C0      		rjmp .L61
 819 0270 00C0      		rjmp .L62
 820               	.LVL59:
 821               	.L56:
 822               	.LBB143:
 823               	.LSM126:
 824 0272 8090 0000 		lds r8,CurrAddress
 825 0276 9090 0000 		lds r9,(CurrAddress)+1
 826 027a A090 0000 		lds r10,(CurrAddress)+2
 827 027e B090 0000 		lds r11,(CurrAddress)+3
 828               	.LVL60:
 829               	.LSM127:
 830 0282 96E4      		ldi r25,lo8(70)
 831 0284 6916      		cp r6,r25
 832 0286 01F0      		breq .+2
 833 0288 00C0      		rjmp .L63
 834               	.LSM128:
 835 028a 83E0      		ldi r24,lo8(3)
 836 028c F401      		movw r30,r8
 837               	.LVL61:
 838               	/* #APP */
 839               	 ;  343 "Caterina.c" 1
 840 028e 8093 5700 		sts 87, r24
 841 0292 E895      		spm
 842               		
 843               	 ;  0 "" 2
 844               	/* #NOAPP */
 845               	.L64:
 846               	.LBE143:
 847               	.LBE148:
 848               	.LSM129:
 849 0294 07B6      		in __tmp_reg__,87-32
 850 0296 00FC      		sbrc __tmp_reg__,0
 851 0298 00C0      		rjmp .L64
 852 029a 00C0      		rjmp .L63
 853               	.LVL62:
 854               	.L70:
 855               	.LBB149:
 856               	.LBB145:
 857               	.LSM130:
 858 029c F6E4      		ldi r31,lo8(70)
 859 029e 6F16      		cp r6,r31
 860 02a0 01F4      		brne .L65
 861               	.LSM131:
 862 02a2 7720      		tst r7
 863 02a4 01F0      		breq .L66
 864               	.LSM132:
 865 02a6 E090 0000 		lds r14,CurrAddress
 866 02aa F090 0000 		lds r15,(CurrAddress)+1
 867 02ae 0091 0000 		lds r16,(CurrAddress)+2
 868 02b2 1091 0000 		lds r17,(CurrAddress)+3
 869               	.LBE145:
 870               	.LBE149:
 871 02b6 0E94 0000 		call FetchNextCommandByte
 872               	.LVL63:
 873               	.LBB150:
 874               	.LBB142:
 875 02ba D82E      		mov r13,r24
 876 02bc CC24      		clr r12
 877 02be 852D      		mov r24,r5
 878 02c0 90E0      		ldi r25,lo8(0)
 879               	.LVL64:
 880 02c2 8C29      		or r24,r12
 881 02c4 9D29      		or r25,r13
 882               	.LVL65:
 883 02c6 F701      		movw r30,r14
 884               	/* #APP */
 885               	 ;  355 "Caterina.c" 1
 886 02c8 0C01      		movw  r0, r24
 887 02ca 4092 5700 		sts 87, r4
 888 02ce E895      		spm
 889 02d0 1124      		clr  r1
 890               		
 891               	 ;  0 "" 2
 892               	.LSM133:
 893               	/* #NOAPP */
 894 02d2 82E0      		ldi r24,lo8(2)
 895 02d4 90E0      		ldi r25,hi8(2)
 896 02d6 A0E0      		ldi r26,hlo8(2)
 897 02d8 B0E0      		ldi r27,hhi8(2)
 898               	.LVL66:
 899 02da E80E      		add r14,r24
 900 02dc F91E      		adc r15,r25
 901 02de 0A1F      		adc r16,r26
 902 02e0 1B1F      		adc r17,r27
 903 02e2 E092 0000 		sts CurrAddress,r14
 904 02e6 F092 0000 		sts (CurrAddress)+1,r15
 905 02ea 0093 0000 		sts (CurrAddress)+2,r16
 906 02ee 1093 0000 		sts (CurrAddress)+3,r17
 907 02f2 00C0      		rjmp .L67
 908               	.LVL67:
 909               	.L66:
 910               	.LBE142:
 911               	.LBE150:
 912               	.LSM134:
 913 02f4 0E94 0000 		call FetchNextCommandByte
 914               	.LVL68:
 915 02f8 582E      		mov r5,r24
 916               	.LVL69:
 917               	.L67:
 918               	.LBB151:
 919               	.LBB146:
 920               	.LSM135:
 921 02fa 7424      		eor r7,r4
 922 02fc 00C0      		rjmp .L68
 923               	.L65:
 924               	.LSM136:
 925 02fe E090 0000 		lds r14,CurrAddress
 926 0302 F090 0000 		lds r15,(CurrAddress)+1
 927 0306 0091 0000 		lds r16,(CurrAddress)+2
 928 030a 1091 0000 		lds r17,(CurrAddress)+3
 929 030e 1695      		lsr r17
 930 0310 0795      		ror r16
 931 0312 F794      		ror r15
 932 0314 E794      		ror r14
 933               	.LBE146:
 934               	.LBE151:
 935 0316 0E94 0000 		call FetchNextCommandByte
 936               	.LVL70:
 937 031a 682F      		mov r22,r24
 938               	.LBB152:
 939               	.LBB141:
 940 031c C701      		movw r24,r14
 941 031e 0E94 0000 		call __eewr_byte_m32u4
 942               	.LSM137:
 943 0322 8091 0000 		lds r24,CurrAddress
 944 0326 9091 0000 		lds r25,(CurrAddress)+1
 945 032a A091 0000 		lds r26,(CurrAddress)+2
 946 032e B091 0000 		lds r27,(CurrAddress)+3
 947 0332 0296      		adiw r24,2
 948 0334 A11D      		adc r26,__zero_reg__
 949 0336 B11D      		adc r27,__zero_reg__
 950 0338 8093 0000 		sts CurrAddress,r24
 951 033c 9093 0000 		sts (CurrAddress)+1,r25
 952 0340 A093 0000 		sts (CurrAddress)+2,r26
 953 0344 B093 0000 		sts (CurrAddress)+3,r27
 954               	.LVL71:
 955               	.L68:
 956 0348 2197      		sbiw r28,1
 957 034a 00C0      		rjmp .L69
 958               	.LVL72:
 959               	.L63:
 960 034c 5524      		clr r5
 961               	.LVL73:
 962 034e 7724      		clr r7
 963               	.LVL74:
 964               	.LSM138:
 965 0350 4424      		clr r4
 966 0352 4394      		inc r4
 967               	.LVL75:
 968               	.L69:
 969               	.LSM139:
 970 0354 2097      		sbiw r28,0
 971 0356 01F0      		breq .+2
 972 0358 00C0      		rjmp .L70
 973               	.LSM140:
 974 035a 96E4      		ldi r25,lo8(70)
 975               	.LVL76:
 976 035c 6916      		cp r6,r25
 977 035e 01F4      		brne .L71
 978               	.LSM141:
 979 0360 85E0      		ldi r24,lo8(5)
 980 0362 F401      		movw r30,r8
 981               	.LVL77:
 982               	/* #APP */
 983               	 ;  381 "Caterina.c" 1
 984 0364 8093 5700 		sts 87, r24
 985 0368 E895      		spm
 986               		
 987               	 ;  0 "" 2
 988               	/* #NOAPP */
 989               	.L72:
 990               	.LBE141:
 991               	.LBE152:
 992               	.LSM142:
 993 036a 07B6      		in __tmp_reg__,87-32
 994 036c 00FC      		sbrc __tmp_reg__,0
 995 036e 00C0      		rjmp .L72
 996               	.LVL78:
 997               	.L71:
 998               	.LBB153:
 999               	.LBB147:
 1000               	.LSM143:
 1001 0370 8DE0      		ldi r24,lo8(13)
 1002 0372 0E94 0000 		call WriteNextResponseByte
 1003               	.LVL79:
 1004               	.L62:
 1005               	.LBE147:
 1006               	.LSM144:
 1007 0376 82E0      		ldi r24,lo8(2)
 1008 0378 8093 6F00 		sts 111,r24
 1009 037c 00C0      		rjmp .L32
 1010               	.LVL80:
 1011               	.L54:
 1012               	.LBE153:
 1013               	.LBE139:
 1014               	.LSM145:
 1015 037e 8334      		cpi r24,lo8(67)
 1016 0380 01F4      		brne .L73
 1017               	.LSM146:
 1018 0382 0091 0000 		lds r16,CurrAddress
 1019 0386 1091 0000 		lds r17,(CurrAddress)+1
 1020 038a 0E94 0000 		call FetchNextCommandByte
 1021               	.LVL81:
 1022 038e 90E0      		ldi r25,lo8(0)
 1023 0390 21E0      		ldi r18,lo8(1)
 1024 0392 F801      		movw r30,r16
 1025               	/* #APP */
 1026               	 ;  613 "Caterina.c" 1
 1027 0394 0C01      		movw  r0, r24
 1028 0396 2093 5700 		sts 87, r18
 1029 039a E895      		spm
 1030 039c 1124      		clr  r1
 1031               		
 1032               	 ;  0 "" 2
 1033               	/* #NOAPP */
 1034 039e 00C0      		rjmp .L98
 1035               	.LVL82:
 1036               	.L73:
 1037               	.LSM147:
 1038 03a0 8336      		cpi r24,lo8(99)
 1039 03a2 01F4      		brne .L74
 1040               	.LSM148:
 1041 03a4 E090 0000 		lds r14,CurrAddress
 1042 03a8 F090 0000 		lds r15,(CurrAddress)+1
 1043 03ac 0091 0000 		lds r16,(CurrAddress)+2
 1044 03b0 1091 0000 		lds r17,(CurrAddress)+3
 1045 03b4 0E94 0000 		call FetchNextCommandByte
 1046               	.LVL83:
 1047 03b8 F701      		movw r30,r14
 1048 03ba E160      		ori r30,lo8(1)
 1049 03bc 90E0      		ldi r25,lo8(0)
 1050 03be 21E0      		ldi r18,lo8(1)
 1051               	/* #APP */
 1052               	 ;  621 "Caterina.c" 1
 1053 03c0 0C01      		movw  r0, r24
 1054 03c2 2093 5700 		sts 87, r18
 1055 03c6 E895      		spm
 1056 03c8 1124      		clr  r1
 1057               		
 1058               	 ;  0 "" 2
 1059               	.LSM149:
 1060               	/* #NOAPP */
 1061 03ca 82E0      		ldi r24,lo8(2)
 1062 03cc 90E0      		ldi r25,hi8(2)
 1063 03ce A0E0      		ldi r26,hlo8(2)
 1064 03d0 B0E0      		ldi r27,hhi8(2)
 1065 03d2 E80E      		add r14,r24
 1066 03d4 F91E      		adc r15,r25
 1067 03d6 0A1F      		adc r16,r26
 1068 03d8 1B1F      		adc r17,r27
 1069 03da E092 0000 		sts CurrAddress,r14
 1070 03de F092 0000 		sts (CurrAddress)+1,r15
 1071 03e2 0093 0000 		sts (CurrAddress)+2,r16
 1072 03e6 1093 0000 		sts (CurrAddress)+3,r17
 1073 03ea 00C0      		rjmp .L98
 1074               	.LVL84:
 1075               	.L74:
 1076               	.LSM150:
 1077 03ec 8D36      		cpi r24,lo8(109)
 1078 03ee 01F4      		brne .L75
 1079               	.LSM151:
 1080 03f0 E091 0000 		lds r30,CurrAddress
 1081 03f4 F091 0000 		lds r31,(CurrAddress)+1
 1082 03f8 85E0      		ldi r24,lo8(5)
 1083               	.LVL85:
 1084               	/* #APP */
 1085               	 ;  632 "Caterina.c" 1
 1086 03fa 8093 5700 		sts 87, r24
 1087 03fe E895      		spm
 1088               		
 1089               	 ;  0 "" 2
 1090               	/* #NOAPP */
 1091               	.L76:
 1092               	.LSM152:
 1093 0400 07B6      		in __tmp_reg__,87-32
 1094 0402 00FC      		sbrc __tmp_reg__,0
 1095 0404 00C0      		rjmp .L76
 1096 0406 00C0      		rjmp .L98
 1097               	.LVL86:
 1098               	.L75:
 1099               	.LSM153:
 1100 0408 8235      		cpi r24,lo8(82)
 1101 040a 01F4      		brne .L77
 1102               	.LBB154:
 1103               	.LBB155:
 1104               	.LSM154:
 1105 040c E091 0000 		lds r30,CurrAddress
 1106 0410 F091 0000 		lds r31,(CurrAddress)+1
 1107               	.LVL87:
 1108               	/* #APP */
 1109               	 ;  645 "Caterina.c" 1
 1110 0414 0591      		lpm r16, Z+
 1111 0416 1491      		lpm r17, Z
 1112               		
 1113               	 ;  0 "" 2
 1114               	.LVL88:
 1115               	/* #NOAPP */
 1116               	.LBE155:
 1117               	.LSM155:
 1118 0418 812F      		mov r24,r17
 1119               	.LVL89:
 1120 041a 0E94 0000 		call WriteNextResponseByte
 1121               	.LVL90:
 1122               	.LSM156:
 1123 041e 802F      		mov r24,r16
 1124 0420 00C0      		rjmp .L97
 1125               	.LVL91:
 1126               	.L77:
 1127               	.LBE154:
 1128               	.LSM157:
 1129 0422 8434      		cpi r24,lo8(68)
 1130 0424 01F4      		brne .L78
 1131               	.LSM158:
 1132 0426 E090 0000 		lds r14,CurrAddress
 1133 042a F090 0000 		lds r15,(CurrAddress)+1
 1134 042e 0091 0000 		lds r16,(CurrAddress)+2
 1135 0432 1091 0000 		lds r17,(CurrAddress)+3
 1136 0436 1695      		lsr r17
 1137 0438 0795      		ror r16
 1138 043a F794      		ror r15
 1139 043c E794      		ror r14
 1140 043e 0E94 0000 		call FetchNextCommandByte
 1141               	.LVL92:
 1142 0442 682F      		mov r22,r24
 1143 0444 C701      		movw r24,r14
 1144 0446 0E94 0000 		call __eewr_byte_m32u4
 1145               	.LSM159:
 1146 044a 8091 0000 		lds r24,CurrAddress
 1147 044e 9091 0000 		lds r25,(CurrAddress)+1
 1148 0452 A091 0000 		lds r26,(CurrAddress)+2
 1149 0456 B091 0000 		lds r27,(CurrAddress)+3
 1150 045a 0296      		adiw r24,2
 1151 045c A11D      		adc r26,__zero_reg__
 1152 045e B11D      		adc r27,__zero_reg__
 1153               	.L100:
 1154 0460 8093 0000 		sts CurrAddress,r24
 1155 0464 9093 0000 		sts (CurrAddress)+1,r25
 1156 0468 A093 0000 		sts (CurrAddress)+2,r26
 1157 046c B093 0000 		sts (CurrAddress)+3,r27
 1158 0470 00C0      		rjmp .L98
 1159               	.LVL93:
 1160               	.L78:
 1161               	.LSM160:
 1162 0472 8436      		cpi r24,lo8(100)
 1163 0474 01F4      		brne .L79
 1164               	.LSM161:
 1165 0476 E090 0000 		lds r14,CurrAddress
 1166 047a F090 0000 		lds r15,(CurrAddress)+1
 1167 047e 0091 0000 		lds r16,(CurrAddress)+2
 1168 0482 1091 0000 		lds r17,(CurrAddress)+3
 1169 0486 D801      		movw r26,r16
 1170 0488 C701      		movw r24,r14
 1171               	.LVL94:
 1172 048a B695      		lsr r27
 1173 048c A795      		ror r26
 1174 048e 9795      		ror r25
 1175 0490 8795      		ror r24
 1176 0492 0E94 0000 		call __eerd_byte_m32u4
 1177 0496 0E94 0000 		call WriteNextResponseByte
 1178               	.LSM162:
 1179 049a 82E0      		ldi r24,lo8(2)
 1180 049c 90E0      		ldi r25,hi8(2)
 1181 049e A0E0      		ldi r26,hlo8(2)
 1182 04a0 B0E0      		ldi r27,hhi8(2)
 1183 04a2 E80E      		add r14,r24
 1184 04a4 F91E      		adc r15,r25
 1185 04a6 0A1F      		adc r16,r26
 1186 04a8 1B1F      		adc r17,r27
 1187 04aa E092 0000 		sts CurrAddress,r14
 1188 04ae F092 0000 		sts (CurrAddress)+1,r15
 1189 04b2 0093 0000 		sts (CurrAddress)+2,r16
 1190 04b6 1093 0000 		sts (CurrAddress)+3,r17
 1191 04ba 00C0      		rjmp .L32
 1192               	.LVL95:
 1193               	.L79:
 1194               	.LSM163:
 1195 04bc 8B31      		cpi r24,lo8(27)
 1196 04be 01F0      		breq .L32
 1197               	.LVL96:
 1198               	.L99:
 1199               	.LSM164:
 1200 04c0 8FE3      		ldi r24,lo8(63)
 1201               	.LVL97:
 1202               	.L97:
 1203 04c2 0E94 0000 		call WriteNextResponseByte
 1204               	.LVL98:
 1205               	.L32:
 1206               	.LBB156:
 1207               	.LBB157:
 1208               	.LSM165:
 1209 04c6 83E0      		ldi r24,lo8(3)
 1210 04c8 8093 E900 		sts 233,r24
 1211               	.LBE157:
 1212               	.LBE156:
 1213               	.LBB158:
 1214               	.LBB159:
 1215               	.LSM166:
 1216 04cc 9091 E800 		lds r25,232
 1217               	.LBE159:
 1218               	.LBE158:
 1219               	.LBB160:
 1220               	.LBB161:
 1221               	.LSM167:
 1222 04d0 8091 E800 		lds r24,232
 1223 04d4 8E77      		andi r24,lo8(126)
 1224 04d6 8093 E800 		sts 232,r24
 1225               	.LBE161:
 1226               	.LBE160:
 1227               	.LSM168:
 1228 04da 95FF      		sbrs r25,5
 1229 04dc 00C0      		rjmp .L95
 1230 04de 00C0      		rjmp .L96
 1231               	.L82:
 1232               	.LSM169:
 1233 04e0 8EB3      		in r24,62-32
 1234 04e2 8823      		tst r24
 1235 04e4 01F0      		breq .L84
 1236               	.L95:
 1237               	.LBB162:
 1238               	.LBB163:
 1239               	.LSM170:
 1240 04e6 8091 E800 		lds r24,232
 1241               	.LBE163:
 1242               	.LBE162:
 1243               	.LSM171:
 1244 04ea 80FF      		sbrs r24,0
 1245 04ec 00C0      		rjmp .L82
 1246               	.LBB164:
 1247               	.LBB165:
 1248               	.LSM172:
 1249 04ee 8091 E800 		lds r24,232
 1250 04f2 8E77      		andi r24,lo8(126)
 1251 04f4 8093 E800 		sts 232,r24
 1252 04f8 00C0      		rjmp .L96
 1253               	.L83:
 1254               	.LBE165:
 1255               	.LBE164:
 1256               	.LSM173:
 1257 04fa 8EB3      		in r24,62-32
 1258 04fc 8823      		tst r24
 1259 04fe 01F0      		breq .L84
 1260               	.L96:
 1261               	.LBB166:
 1262               	.LBB167:
 1263               	.LSM174:
 1264 0500 8091 E800 		lds r24,232
 1265               	.LBE167:
 1266               	.LBE166:
 1267               	.LSM175:
 1268 0504 80FF      		sbrs r24,0
 1269 0506 00C0      		rjmp .L83
 1270               	.LBB168:
 1271               	.LBB169:
 1272               	.LSM176:
 1273 0508 84E0      		ldi r24,lo8(4)
 1274 050a 8093 E900 		sts 233,r24
 1275               	.LBE169:
 1276               	.LBE168:
 1277               	.LBB170:
 1278               	.LBB171:
 1279               	.LSM177:
 1280 050e 8091 E800 		lds r24,232
 1281 0512 8B77      		andi r24,lo8(123)
 1282 0514 8093 E800 		sts 232,r24
 1283               	.L84:
 1284               	/* epilogue start */
 1285               	.LBE171:
 1286               	.LBE170:
 1287               	.LSM178:
 1288 0518 DF91      		pop r29
 1289               	.LVL99:
 1290 051a CF91      		pop r28
 1291               	.LVL100:
 1292 051c 1F91      		pop r17
 1293               	.LVL101:
 1294 051e 0F91      		pop r16
 1295               	.LVL102:
 1296 0520 FF90      		pop r15
 1297 0522 EF90      		pop r14
 1298 0524 DF90      		pop r13
 1299 0526 CF90      		pop r12
 1300 0528 BF90      		pop r11
 1301 052a AF90      		pop r10
 1302 052c 9F90      		pop r9
 1303 052e 8F90      		pop r8
 1304               	.LVL103:
 1305 0530 7F90      		pop r7
 1306               	.LVL104:
 1307 0532 6F90      		pop r6
 1308               	.LVL105:
 1309 0534 5F90      		pop r5
 1310               	.LVL106:
 1311 0536 4F90      		pop r4
 1312 0538 0895      		ret
 1313               	.LFE103:
 1315               		.section	.text.EVENT_USB_Device_ControlRequest,"ax",@progbits
 1316               	.global	EVENT_USB_Device_ControlRequest
 1318               	EVENT_USB_Device_ControlRequest:
 1319               	.LFB99:
 1320               	.LSM179:
 1321               	/* prologue: function */
 1322               	/* frame size = 0 */
 1323               	.LSM180:
 1324 0000 9091 0000 		lds r25,USB_ControlRequest
 1325 0004 892F      		mov r24,r25
 1326 0006 8F77      		andi r24,lo8(127)
 1327 0008 8132      		cpi r24,lo8(33)
 1328 000a 01F4      		brne .L105
 1329               	.LSM181:
 1330 000c 8091 0000 		lds r24,USB_ControlRequest+1
 1331 0010 8032      		cpi r24,lo8(32)
 1332 0012 01F0      		breq .L103
 1333 0014 8132      		cpi r24,lo8(33)
 1334 0016 01F4      		brne .L105
 1335               	.LSM182:
 1336 0018 913A      		cpi r25,lo8(-95)
 1337 001a 01F4      		brne .L105
 1338               	.LBB172:
 1339               	.LBB173:
 1340               	.LSM183:
 1341 001c 8091 E800 		lds r24,232
 1342 0020 877F      		andi r24,lo8(-9)
 1343 0022 8093 E800 		sts 232,r24
 1344               	.LBE173:
 1345               	.LBE172:
 1346               	.LSM184:
 1347 0026 80E0      		ldi r24,lo8(LineEncoding)
 1348 0028 90E0      		ldi r25,hi8(LineEncoding)
 1349 002a 67E0      		ldi r22,lo8(7)
 1350 002c 70E0      		ldi r23,hi8(7)
 1351 002e 0E94 0000 		call Endpoint_Write_Control_Stream_LE
 1352               	.LBB174:
 1353               	.LBB175:
 1354               	.LSM185:
 1355 0032 8091 E800 		lds r24,232
 1356 0036 8B77      		andi r24,lo8(123)
 1357 0038 8093 E800 		sts 232,r24
 1358 003c 0895      		ret
 1359               	.L103:
 1360               	.LBE175:
 1361               	.LBE174:
 1362               	.LSM186:
 1363 003e 9132      		cpi r25,lo8(33)
 1364 0040 01F4      		brne .L105
 1365               	.LBB176:
 1366               	.LBB177:
 1367               	.LSM187:
 1368 0042 8091 E800 		lds r24,232
 1369 0046 877F      		andi r24,lo8(-9)
 1370 0048 8093 E800 		sts 232,r24
 1371               	.LBE177:
 1372               	.LBE176:
 1373               	.LSM188:
 1374 004c 80E0      		ldi r24,lo8(LineEncoding)
 1375 004e 90E0      		ldi r25,hi8(LineEncoding)
 1376 0050 67E0      		ldi r22,lo8(7)
 1377 0052 70E0      		ldi r23,hi8(7)
 1378 0054 0E94 0000 		call Endpoint_Read_Control_Stream_LE
 1379               	.LBB178:
 1380               	.LBB179:
 1381               	.LSM189:
 1382 0058 8091 E800 		lds r24,232
 1383 005c 8E77      		andi r24,lo8(126)
 1384 005e 8093 E800 		sts 232,r24
 1385               	.L105:
 1386 0062 0895      		ret
 1387               	.LBE179:
 1388               	.LBE178:
 1389               	.LFE99:
 1391               		.section	.text.EVENT_USB_Device_ConfigurationChanged,"ax",@progbits
 1392               	.global	EVENT_USB_Device_ConfigurationChanged
 1394               	EVENT_USB_Device_ConfigurationChanged:
 1395               	.LFB98:
 1396               	.LSM190:
 1397               	/* prologue: function */
 1398               	/* frame size = 0 */
 1399               	.LBB180:
 1400               	.LBB181:
 1401               	.LSM191:
 1402 0000 82E0      		ldi r24,lo8(2)
 1403 0002 61EC      		ldi r22,lo8(-63)
 1404 0004 42E0      		ldi r20,lo8(2)
 1405 0006 0E94 0000 		call Endpoint_ConfigureEndpoint_Prv
 1406               	.LBE181:
 1407               	.LBE180:
 1408               	.LBB182:
 1409               	.LBB183:
 1410 000a 83E0      		ldi r24,lo8(3)
 1411 000c 61E8      		ldi r22,lo8(-127)
 1412 000e 42E1      		ldi r20,lo8(18)
 1413 0010 0E94 0000 		call Endpoint_ConfigureEndpoint_Prv
 1414               	.LBE183:
 1415               	.LBE182:
 1416               	.LBB184:
 1417               	.LBB185:
 1418 0014 84E0      		ldi r24,lo8(4)
 1419 0016 60E8      		ldi r22,lo8(-128)
 1420 0018 42E1      		ldi r20,lo8(18)
 1421 001a 0E94 0000 		call Endpoint_ConfigureEndpoint_Prv
 1422               	/* epilogue start */
 1423               	.LBE185:
 1424               	.LBE184:
 1425               	.LSM192:
 1426 001e 0895      		ret
 1427               	.LFE98:
 1429               		.section	.text.SetupHardware,"ax",@progbits
 1430               	.global	SetupHardware
 1432               	SetupHardware:
 1433               	.LFB96:
 1434               	.LSM193:
 1435               	/* prologue: function */
 1436               	/* frame size = 0 */
 1437               	.LSM194:
 1438 0000 84B7      		in r24,84-32
 1439 0002 877F      		andi r24,lo8(-9)
 1440 0004 84BF      		out 84-32,r24
 1441               	.LSM195:
 1442 0006 88E1      		ldi r24,lo8(24)
 1443               	/* #APP */
 1444               	 ;  166 "Caterina.c" 1
 1445 0008 0FB6      		in __tmp_reg__, __SREG__
 1446 000a F894      		cli
 1447 000c 8093 6000 		sts 96, r24
 1448 0010 1092 6000 		sts 96, __zero_reg__
 1449 0014 0FBE      		out __SREG__,__tmp_reg__
 1450               		
 1451               	 ;  0 "" 2
 1452               	/* #NOAPP */
 1453               	.LBB186:
 1454               	.LSM196:
 1455 0016 20E8      		ldi r18,lo8(-128)
 1456 0018 80E0      		ldi r24,lo8(0)
 1457 001a 90E0      		ldi r25,hi8(0)
 1458               	/* #APP */
 1459               	 ;  169 "Caterina.c" 1
 1460 001c 0FB6      		in __tmp_reg__,__SREG__
 1461 001e F894      		cli
 1462 0020 2093 6100 		sts 97, r18
 1463 0024 8093 6100 		sts 97, r24
 1464 0028 0FBE      		out __SREG__, __tmp_reg__
 1465               	 ;  0 "" 2
 1466               	/* #NOAPP */
 1467               	.LBE186:
 1468               	.LSM197:
 1469 002a 81E0      		ldi r24,lo8(1)
 1470 002c 85BF      		out 85-32,r24
 1471               	.LSM198:
 1472 002e 92E0      		ldi r25,lo8(2)
 1473 0030 95BF      		out 85-32,r25
 1474               	.LSM199:
 1475 0032 3F9A      		sbi 39-32,7
 1476 0034 209A      		sbi 36-32,0
 1477 0036 559A      		sbi 42-32,5
 1478               	.LSM200:
 1479 0038 E1E6      		ldi r30,lo8(97)
 1480 003a F0E0      		ldi r31,hi8(97)
 1481 003c 2083      		st Z,r18
 1482 003e 1082      		st Z,__zero_reg__
 1483               	.LSM201:
 1484 0040 4798      		cbi 40-32,7
 1485               	.LSM202:
 1486 0042 5D98      		cbi 43-32,5
 1487               	.LSM203:
 1488 0044 2898      		cbi 37-32,0
 1489               	.LSM204:
 1490 0046 1092 8900 		sts 137,__zero_reg__
 1491               	.LSM205:
 1492 004a 8AEF      		ldi r24,lo8(-6)
 1493 004c 8093 8800 		sts 136,r24
 1494               	.LSM206:
 1495 0050 9093 6F00 		sts 111,r25
 1496               	.LSM207:
 1497 0054 83E0      		ldi r24,lo8(3)
 1498 0056 8093 8100 		sts 129,r24
 1499               	.LSM208:
 1500 005a 0E94 0000 		call USB_Init
 1501               	/* epilogue start */
 1502               	.LSM209:
 1503 005e 0895      		ret
 1504               	.LFE96:
 1506               		.section	.text.main,"ax",@progbits
 1507               	.global	main
 1509               	main:
 1510               	.LFB95:
 1511               	.LSM210:
 1512               	/* prologue: function */
 1513               	/* frame size = 0 */
 1514               	.LSM211:
 1515 0000 4091 0008 		lds r20,2048
 1516 0004 5091 0108 		lds r21,(2048)+1
 1517               	.LVL107:
 1518               	.LSM212:
 1519 0008 1092 0108 		sts (2048)+1,__zero_reg__
 1520 000c 1092 0008 		sts 2048,__zero_reg__
 1521               	.LSM213:
 1522 0010 94B7      		in r25,84-32
 1523               	.LVL108:
 1524               	.LSM214:
 1525 0012 14BE      		out 84-32,__zero_reg__
 1526               	.LSM215:
 1527 0014 88E1      		ldi r24,lo8(24)
 1528               	/* #APP */
 1529               	 ;  122 "Caterina.c" 1
 1530 0016 0FB6      		in __tmp_reg__, __SREG__
 1531 0018 F894      		cli
 1532 001a 8093 6000 		sts 96, r24
 1533 001e 1092 6000 		sts 96, __zero_reg__
 1534 0022 0FBE      		out __SREG__,__tmp_reg__
 1535               		
 1536               	 ;  0 "" 2
 1537               	.LSM216:
 1538               	/* #NOAPP */
 1539 0024 292F      		mov r18,r25
 1540 0026 30E0      		ldi r19,lo8(0)
 1541 0028 F901      		movw r30,r18
 1542 002a E270      		andi r30,lo8(2)
 1543 002c F070      		andi r31,hi8(2)
 1544 002e 91FD      		sbrc r25,1
 1545 0030 00C0      		rjmp .L111
 1546               	.LVL109:
 1547               	.LSM217:
 1548 0032 90FF      		sbrs r25,0
 1549 0034 00C0      		rjmp .L112
 1550               	.LBB187:
 1551               	/* #APP */
 1552               	 ;  126 "Caterina.c" 1
 1553 0036 8591      		lpm r24, Z+
 1554 0038 9491      		lpm r25, Z
 1555               		
 1556               	 ;  0 "" 2
 1557               	.LVL110:
 1558               	/* #NOAPP */
 1559               	.LBE187:
 1560 003a 8F5F      		subi r24,lo8(-1)
 1561 003c 9F4F      		sbci r25,hi8(-1)
 1562 003e 01F4      		brne .L117
 1563               	.L112:
 1564               	.LSM218:
 1565 0040 23FF      		sbrs r18,3
 1566 0042 00C0      		rjmp .L111
 1567 0044 8091 0000 		lds r24,bootKey
 1568 0048 9091 0000 		lds r25,(bootKey)+1
 1569               	.LVL111:
 1570 004c 4817      		cp r20,r24
 1571 004e 5907      		cpc r21,r25
 1572 0050 01F0      		breq .L111
 1573               	.LBB188:
 1574 0052 E0E0      		ldi r30,lo8(0)
 1575 0054 F0E0      		ldi r31,hi8(0)
 1576               	.LVL112:
 1577               	/* #APP */
 1578               	 ;  130 "Caterina.c" 1
 1579 0056 8591      		lpm r24, Z+
 1580 0058 9491      		lpm r25, Z
 1581               		
 1582               	 ;  0 "" 2
 1583               	.LVL113:
 1584               	/* #NOAPP */
 1585               	.LBE188:
 1586 005a 8F5F      		subi r24,lo8(-1)
 1587 005c 9F4F      		sbci r25,hi8(-1)
 1588 005e 01F0      		breq .L111
 1589               	.LVL114:
 1590               	.L117:
 1591               	.LSM219:
 1592 0060 0E94 0000 		call StartSketch
 1593               	.LVL115:
 1594               	.L111:
 1595               	.LSM220:
 1596 0064 0E94 0000 		call SetupHardware
 1597               	.LVL116:
 1598               	.LSM221:
 1599               	/* #APP */
 1600               	 ;  139 "Caterina.c" 1
 1601 0068 7894      		sei
 1602               	 ;  0 "" 2
 1603               	.LSM222:
 1604               	/* #NOAPP */
 1605 006a 1092 0000 		sts (Timeout)+1,__zero_reg__
 1606 006e 1092 0000 		sts Timeout,__zero_reg__
 1607 0072 00C0      		rjmp .L113
 1608               	.L115:
 1609               	.LSM223:
 1610 0074 0E94 0000 		call CDC_Task
 1611               	.LSM224:
 1612 0078 0E94 0000 		call USB_USBTask
 1613               	.LSM225:
 1614 007c 8091 0000 		lds r24,Timeout
 1615 0080 9091 0000 		lds r25,(Timeout)+1
 1616 0084 815A      		subi r24,lo8(4001)
 1617 0086 9F40      		sbci r25,hi8(4001)
 1618 0088 00F0      		brlo .L114
 1619               	.LSM226:
 1620 008a 1092 0000 		sts RunBootloader,__zero_reg__
 1621               	.L114:
 1622               	.LSM227:
 1623 008e 0E94 0000 		call LEDPulse
 1624               	.L113:
 1625               	.LSM228:
 1626 0092 8091 0000 		lds r24,RunBootloader
 1627 0096 8823      		tst r24
 1628 0098 01F4      		brne .L115
 1629               	.LBB189:
 1630               	.LBB190:
 1631               	.LSM229:
 1632 009a 8091 E000 		lds r24,224
 1633 009e 8160      		ori r24,lo8(1)
 1634 00a0 8093 E000 		sts 224,r24
 1635               	.LBE190:
 1636               	.LBE189:
 1637               	.LSM230:
 1638 00a4 0E94 0000 		call StartSketch
 1639               	.LSM231:
 1640 00a8 80E0      		ldi r24,lo8(0)
 1641 00aa 90E0      		ldi r25,hi8(0)
 1642               	/* epilogue start */
 1643 00ac 0895      		ret
 1644               	.LFE95:
 1646               	.global	TxLEDPulse
 1647               	.global	TxLEDPulse
 1648               		.section .bss
 1651               	TxLEDPulse:
 1652 0000 0000      		.skip 2,0
 1653               	.global	RxLEDPulse
 1654               	.global	RxLEDPulse
 1657               	RxLEDPulse:
 1658 0002 0000      		.skip 2,0
 1659               	.global	Timeout
 1660               	.global	Timeout
 1663               	Timeout:
 1664 0004 0000      		.skip 2,0
 1665               	.global	bootKey
 1666               		.data
 1669               	bootKey:
 1670 0009 7777      		.word	30583
 1671               	.global	bootKeyPtr
 1674               	bootKeyPtr:
 1675 000b 0008      		.word	2048
 1678               	LineEncoding:
 1679 000d 00        		.byte	0
 1680 000e 00        		.byte	0
 1681 000f 00        		.byte	0
 1682 0010 00        		.byte	0
 1683 0011 00        		.byte	0
 1684 0012 00        		.byte	0
 1685 0013 08        		.byte	8
 1688               	RunBootloader:
 1689 0014 01        		.byte	1
 1690               		.lcomm CurrAddress,4
 1691               		.comm LLEDPulse,2,1
 1788               	.Letext0:
DEFINED SYMBOLS
                            *ABS*:00000000 Caterina.c
C:\Users\Martin\AppData\Local\Temp/cc8yr04t.s:2      *ABS*:0000003f __SREG__
C:\Users\Martin\AppData\Local\Temp/cc8yr04t.s:3      *ABS*:0000003e __SP_H__
C:\Users\Martin\AppData\Local\Temp/cc8yr04t.s:4      *ABS*:0000003d __SP_L__
C:\Users\Martin\AppData\Local\Temp/cc8yr04t.s:5      *ABS*:00000034 __CCP__
C:\Users\Martin\AppData\Local\Temp/cc8yr04t.s:6      *ABS*:00000000 __tmp_reg__
C:\Users\Martin\AppData\Local\Temp/cc8yr04t.s:7      *ABS*:00000001 __zero_reg__
C:\Users\Martin\AppData\Local\Temp/cc8yr04t.s:19     .text.StartSketch:00000000 StartSketch
C:\Users\Martin\AppData\Local\Temp/cc8yr04t.s:63     .text.LEDPulse:00000000 LEDPulse
                            *COM*:00000002 LLEDPulse
C:\Users\Martin\AppData\Local\Temp/cc8yr04t.s:102    .text.__vector_17:00000000 __vector_17
C:\Users\Martin\AppData\Local\Temp/cc8yr04t.s:1651   .bss:00000000 TxLEDPulse
C:\Users\Martin\AppData\Local\Temp/cc8yr04t.s:1657   .bss:00000002 RxLEDPulse
C:\Users\Martin\AppData\Local\Temp/cc8yr04t.s:1663   .bss:00000004 Timeout
C:\Users\Martin\AppData\Local\Temp/cc8yr04t.s:191    .text.FetchNextCommandByte:00000000 FetchNextCommandByte
C:\Users\Martin\AppData\Local\Temp/cc8yr04t.s:252    .text.WriteNextResponseByte:00000000 WriteNextResponseByte
C:\Users\Martin\AppData\Local\Temp/cc8yr04t.s:324    .text.CDC_Task:00000000 CDC_Task
                             .bss:00000006 CurrAddress
C:\Users\Martin\AppData\Local\Temp/cc8yr04t.s:1318   .text.EVENT_USB_Device_ControlRequest:00000000 EVENT_USB_Device_ControlRequest
C:\Users\Martin\AppData\Local\Temp/cc8yr04t.s:1678   .data:0000000d LineEncoding
C:\Users\Martin\AppData\Local\Temp/cc8yr04t.s:1394   .text.EVENT_USB_Device_ConfigurationChanged:00000000 EVENT_USB_Device_ConfigurationChanged
C:\Users\Martin\AppData\Local\Temp/cc8yr04t.s:1432   .text.SetupHardware:00000000 SetupHardware
C:\Users\Martin\AppData\Local\Temp/cc8yr04t.s:1509   .text.main:00000000 main
C:\Users\Martin\AppData\Local\Temp/cc8yr04t.s:1669   .data:00000009 bootKey
C:\Users\Martin\AppData\Local\Temp/cc8yr04t.s:1688   .data:00000014 RunBootloader
C:\Users\Martin\AppData\Local\Temp/cc8yr04t.s:1674   .data:0000000b bootKeyPtr

UNDEFINED SYMBOLS
__eerd_byte_m32u4
__eewr_byte_m32u4
USB_ControlRequest
Endpoint_Write_Control_Stream_LE
Endpoint_Read_Control_Stream_LE
Endpoint_ConfigureEndpoint_Prv
USB_Init
USB_USBTask
__do_copy_data
__do_clear_bss
